; ModuleID = '58/42.c'
source_filename = "58/42.c"
target datalayout = "e-m:e-p270:32:32-p271:32:32-p272:64:64-i64:64-f80:128-n8:16:32:64-S128"
target triple = "x86_64-pc-linux-gnu"

@.str = private unnamed_addr constant [3 x i8] c"%d\00", align 1
@.str.1 = private unnamed_addr constant [4 x i8] c"%d\0A\00", align 1

; Function Attrs: noinline nounwind uwtable
define dso_local i32 @main() #0 {
  %1 = alloca i32, align 4
  %2 = alloca i32, align 4
  %3 = alloca i32, align 4
  %4 = alloca i8**, align 8
  store i32 0, i32* %1, align 4
  %5 = call i32 (i8*, ...) @__isoc99_scanf(i8* getelementptr inbounds ([3 x i8], [3 x i8]* @.str, i64 0, i64 0), i32* %2)
  %6 = load i32, i32* %2, align 4
  %7 = sext i32 %6 to i64
  %8 = mul i64 %7, 8
  %9 = call noalias i8* @malloc(i64 %8) #3
  %10 = bitcast i8* %9 to i8**
  store i8** %10, i8*** %4, align 8
  store i32 0, i32* %3, align 4
  br label %11

11:                                               ; preds = %28, %0
  %12 = load i32, i32* %3, align 4
  %13 = load i32, i32* %2, align 4
  %14 = add nsw i32 %13, 1
  %15 = icmp slt i32 %12, %14
  br i1 %15, label %16, label %31

16:                                               ; preds = %11
  %17 = call noalias i8* @malloc(i64 100) #3
  %18 = load i8**, i8*** %4, align 8
  %19 = load i32, i32* %3, align 4
  %20 = sext i32 %19 to i64
  %21 = getelementptr inbounds i8*, i8** %18, i64 %20
  store i8* %17, i8** %21, align 8
  %22 = load i8**, i8*** %4, align 8
  %23 = load i32, i32* %3, align 4
  %24 = sext i32 %23 to i64
  %25 = getelementptr inbounds i8*, i8** %22, i64 %24
  %26 = load i8*, i8** %25, align 8
  %27 = call i32 (i8*, ...) bitcast (i32 (...)* @gets to i32 (i8*, ...)*)(i8* %26)
  br label %28

28:                                               ; preds = %16
  %29 = load i32, i32* %3, align 4
  %30 = add nsw i32 %29, 1
  store i32 %30, i32* %3, align 4
  br label %11

31:                                               ; preds = %11
  store i32 1, i32* %3, align 4
  br label %32

32:                                               ; preds = %45, %31
  %33 = load i32, i32* %3, align 4
  %34 = load i32, i32* %2, align 4
  %35 = add nsw i32 %34, 1
  %36 = icmp slt i32 %33, %35
  br i1 %36, label %37, label %48

37:                                               ; preds = %32
  %38 = load i8**, i8*** %4, align 8
  %39 = load i32, i32* %3, align 4
  %40 = sext i32 %39 to i64
  %41 = getelementptr inbounds i8*, i8** %38, i64 %40
  %42 = load i8*, i8** %41, align 8
  %43 = call i32 @judge(i8* %42)
  %44 = call i32 (i8*, ...) @printf(i8* getelementptr inbounds ([4 x i8], [4 x i8]* @.str.1, i64 0, i64 0), i32 %43)
  br label %45

45:                                               ; preds = %37
  %46 = load i32, i32* %3, align 4
  %47 = add nsw i32 %46, 1
  store i32 %47, i32* %3, align 4
  br label %32

48:                                               ; preds = %32
  %49 = load i32, i32* %1, align 4
  ret i32 %49
}

declare dso_local i32 @__isoc99_scanf(i8*, ...) #1

; Function Attrs: nounwind
declare dso_local noalias i8* @malloc(i64) #2

declare dso_local i32 @gets(...) #1

declare dso_local i32 @printf(i8*, ...) #1

; Function Attrs: noinline nounwind uwtable
define dso_local i32 @judge(i8* %0) #0 {
  %2 = alloca i8*, align 8
  %3 = alloca i32, align 4
  %4 = alloca i32, align 4
  store i8* %0, i8** %2, align 8
  store i32 0, i32* %4, align 4
  %5 = load i8*, i8** %2, align 8
  %6 = load i8, i8* %5, align 1
  %7 = sext i8 %6 to i32
  %8 = icmp eq i32 %7, 95
  br i1 %8, label %29, label %9

9:                                                ; preds = %1
  %10 = load i8*, i8** %2, align 8
  %11 = load i8, i8* %10, align 1
  %12 = sext i8 %11 to i32
  %13 = icmp sge i32 %12, 97
  br i1 %13, label %14, label %19

14:                                               ; preds = %9
  %15 = load i8*, i8** %2, align 8
  %16 = load i8, i8* %15, align 1
  %17 = sext i8 %16 to i32
  %18 = icmp sle i32 %17, 122
  br i1 %18, label %29, label %19

19:                                               ; preds = %14, %9
  %20 = load i8*, i8** %2, align 8
  %21 = load i8, i8* %20, align 1
  %22 = sext i8 %21 to i32
  %23 = icmp sge i32 %22, 65
  br i1 %23, label %24, label %30

24:                                               ; preds = %19
  %25 = load i8*, i8** %2, align 8
  %26 = load i8, i8* %25, align 1
  %27 = sext i8 %26 to i32
  %28 = icmp sle i32 %27, 90
  br i1 %28, label %29, label %30

29:                                               ; preds = %24, %14, %1
  store i32 1, i32* %4, align 4
  br label %30

30:                                               ; preds = %29, %24, %19
  store i32 1, i32* %3, align 4
  br label %31

31:                                               ; preds = %106, %30
  %32 = load i8*, i8** %2, align 8
  %33 = load i32, i32* %3, align 4
  %34 = sext i32 %33 to i64
  %35 = getelementptr inbounds i8, i8* %32, i64 %34
  %36 = load i8, i8* %35, align 1
  %37 = sext i8 %36 to i32
  %38 = icmp ne i32 %37, 0
  br i1 %38, label %39, label %42

39:                                               ; preds = %31
  %40 = load i32, i32* %4, align 4
  %41 = icmp eq i32 %40, 1
  br label %42

42:                                               ; preds = %39, %31
  %43 = phi i1 [ false, %31 ], [ %41, %39 ]
  br i1 %43, label %44, label %109

44:                                               ; preds = %42
  %45 = load i8*, i8** %2, align 8
  %46 = load i32, i32* %3, align 4
  %47 = sext i32 %46 to i64
  %48 = getelementptr inbounds i8, i8* %45, i64 %47
  %49 = load i8, i8* %48, align 1
  %50 = sext i8 %49 to i32
  %51 = icmp sge i32 %50, 97
  br i1 %51, label %52, label %60

52:                                               ; preds = %44
  %53 = load i8*, i8** %2, align 8
  %54 = load i32, i32* %3, align 4
  %55 = sext i32 %54 to i64
  %56 = getelementptr inbounds i8, i8* %53, i64 %55
  %57 = load i8, i8* %56, align 1
  %58 = sext i8 %57 to i32
  %59 = icmp sle i32 %58, 122
  br i1 %59, label %100, label %60

60:                                               ; preds = %52, %44
  %61 = load i8*, i8** %2, align 8
  %62 = load i32, i32* %3, align 4
  %63 = sext i32 %62 to i64
  %64 = getelementptr inbounds i8, i8* %61, i64 %63
  %65 = load i8, i8* %64, align 1
  %66 = sext i8 %65 to i32
  %67 = icmp sge i32 %66, 65
  br i1 %67, label %68, label %76

68:                                               ; preds = %60
  %69 = load i8*, i8** %2, align 8
  %70 = load i32, i32* %3, align 4
  %71 = sext i32 %70 to i64
  %72 = getelementptr inbounds i8, i8* %69, i64 %71
  %73 = load i8, i8* %72, align 1
  %74 = sext i8 %73 to i32
  %75 = icmp sle i32 %74, 90
  br i1 %75, label %100, label %76

76:                                               ; preds = %68, %60
  %77 = load i8*, i8** %2, align 8
  %78 = load i32, i32* %3, align 4
  %79 = sext i32 %78 to i64
  %80 = getelementptr inbounds i8, i8* %77, i64 %79
  %81 = load i8, i8* %80, align 1
  %82 = sext i8 %81 to i32
  %83 = icmp sge i32 %82, 48
  br i1 %83, label %84, label %92

84:                                               ; preds = %76
  %85 = load i8*, i8** %2, align 8
  %86 = load i32, i32* %3, align 4
  %87 = sext i32 %86 to i64
  %88 = getelementptr inbounds i8, i8* %85, i64 %87
  %89 = load i8, i8* %88, align 1
  %90 = sext i8 %89 to i32
  %91 = icmp sle i32 %90, 57
  br i1 %91, label %100, label %92

92:                                               ; preds = %84, %76
  %93 = load i8*, i8** %2, align 8
  %94 = load i32, i32* %3, align 4
  %95 = sext i32 %94 to i64
  %96 = getelementptr inbounds i8, i8* %93, i64 %95
  %97 = load i8, i8* %96, align 1
  %98 = sext i8 %97 to i32
  %99 = icmp eq i32 %98, 95
  br label %100

100:                                              ; preds = %92, %84, %68, %52
  %101 = phi i1 [ true, %84 ], [ true, %68 ], [ true, %52 ], [ %99, %92 ]
  %102 = zext i1 %101 to i32
  %103 = icmp ne i32 %102, 1
  br i1 %103, label %104, label %105

104:                                              ; preds = %100
  store i32 0, i32* %4, align 4
  br label %105

105:                                              ; preds = %104, %100
  br label %106

106:                                              ; preds = %105
  %107 = load i32, i32* %3, align 4
  %108 = add nsw i32 %107, 1
  store i32 %108, i32* %3, align 4
  br label %31

109:                                              ; preds = %42
  %110 = load i32, i32* %4, align 4
  ret i32 %110
}


!llvm.module.flags = !{!0}
!llvm.ident = !{!1}

!0 = !{i32 1, !"wchar_size", i32 4}
!1 = !{!"clang version 10.0.0-4ubuntu1 "}
